; Function Attrs: nounwind uwtable
define internal range(i32 -1, 1) i32 @H5D__btree_idx_dest(ptr noundef readonly captures(none) %0) #0 {
  %2 = load i8, ptr @H5D_init_g, align 1, !tbaa !3, !range !7, !noundef !8
  %3 = trunc nuw i8 %2 to i1
  %4 = load i8, ptr @H5_libterm_g, align 1, !range !7
  %5 = trunc nuw i8 %4 to i1
  %6 = xor i1 %5, true
  %7 = select i1 %3, i1 true, i1 %6
  br i1 %7, label %8, label %25, !prof !9

8:                                                ; preds = %1
  %9 = getelementptr inbounds nuw i8, ptr %0, i64 24
  %10 = load ptr, ptr %9, align 8, !tbaa !10
  %11 = getelementptr inbounds nuw i8, ptr %10, i64 32
  %12 = load ptr, ptr %11, align 8, !tbaa !17
  %13 = icmp eq ptr %12, null
  br i1 %13, label %14, label %18

14:                                               ; preds = %8
  %15 = load i64, ptr @H5E_IO_g, align 8, !tbaa !20
  %16 = load i64, ptr @H5E_CANTFREE_g, align 8, !tbaa !20
  %17 = tail call i32 (ptr, ptr, i32, i64, i64, ptr, ...) @H5E_printf_stack(ptr noundef nonnull @.str, ptr noundef nonnull @__func__.H5D__btree_idx_dest, i32 noundef 1415, i64 noundef %15, i64 noundef %16, ptr noundef nonnull @.str.12) #15
  br label %25

18:                                               ; preds = %8
  %19 = tail call i32 @H5UC_decr(ptr noundef nonnull %12) #15
  %20 = icmp slt i32 %19, 0
  br i1 %20, label %21, label %25

21:                                               ; preds = %18
  %22 = load i64, ptr @H5E_IO_g, align 8, !tbaa !20
  %23 = load i64, ptr @H5E_CANTFREE_g, align 8, !tbaa !20
  %24 = tail call i32 (ptr, ptr, i32, i64, i64, ptr, ...) @H5E_printf_stack(ptr noundef nonnull @.str, ptr noundef nonnull @__func__.H5D__btree_idx_dest, i32 noundef 1417, i64 noundef %22, i64 noundef %23, ptr noundef nonnull @.str.13) #15
  br label %25

25:                                               ; preds = %14, %21, %18, %1
  %.0 = phi i32 [ -1, %14 ], [ -1, %21 ], [ 0, %18 ], [ 0, %1 ]
  ret i32 %.0
}